target datalayout = "e-m:e-p270:32:32-p271:32:32-p272:64:64-i64:64-i128:128-f80:128-n8:16:32:64-S128"
target triple = "x86_64-pc-linux-gnu"

@proto_register_linx.ett = internal global [6 x ptr] [ptr @ett_linx, ptr @ett_linx_multicore, ptr @ett_linx_main, ptr @ett_linx_error, ptr @ett_linx_udata, ptr @ett_linx_ack], align 16
@.str.103 = private unnamed_addr constant [10 x i8] c"ENEA LINX\00", align 1
@.str.104 = private unnamed_addr constant [5 x i8] c"LINX\00", align 1
@.str.105 = private unnamed_addr constant [5 x i8] c"linx\00", align 1
@proto_linx = internal global i32 0, align 4
@linx_handle = internal global ptr null, align 8

; Function Attrs: null_pointer_is_valid sspstrong uwtable
define hidden void @proto_register_linx() #0 {
  %1 = alloca ptr, align 8
  call void @llvm.lifetime.start.p0(i64 8, ptr %1) #3
  %2 = call i32 @proto_register_protocol(ptr noundef @.str.103, ptr noundef @.str.104, ptr noundef @.str.105)
  store i32 %2, ptr @proto_linx, align 4
  %3 = load i32, ptr @proto_linx, align 4
  call void @proto_register_field_array(i32 noundef %3, ptr noundef @proto_register_linx.hf, i32 noundef 47)
  call void @proto_register_subtree_array(ptr noundef @proto_register_linx.ett, i32 noundef 6)
  %4 = load i32, ptr @proto_linx, align 4
  %5 = call ptr @expert_register_protocol(i32 noundef %4)
  store ptr %5, ptr %1, align 8
  %6 = load ptr, ptr %1, align 8
  call void @expert_register_field_array(ptr noundef %6, ptr noundef @proto_register_linx.ei, i32 noundef 3)
  %7 = load i32, ptr @proto_linx, align 4
  %8 = call ptr @register_dissector(ptr noundef @.str.105, ptr noundef @dissect_linx, i32 noundef %7)
  store ptr %8, ptr @linx_handle, align 8
  call void @llvm.lifetime.end.p0(i64 8, ptr %1) #3
  ret void
}